; ModuleID = '34/1101.c'
source_filename = "34/1101.c"
target datalayout = "e-m:e-p270:32:32-p271:32:32-p272:64:64-i64:64-f80:128-n8:16:32:64-S128"
target triple = "x86_64-pc-linux-gnu"

@.str = private unnamed_addr constant [3 x i8] c"%d\00", align 1
@.str.1 = private unnamed_addr constant [5 x i8] c"End\0A\00", align 1
@.str.2 = private unnamed_addr constant [9 x i8] c"%d/2=%d\0A\00", align 1
@.str.3 = private unnamed_addr constant [11 x i8] c"%d*3+1=%d\0A\00", align 1

; Function Attrs: noinline nounwind uwtable
define dso_local i32 @main() #0 {
  %1 = alloca i32, align 4
  %2 = alloca i32, align 4
  %3 = alloca i32, align 4
  %4 = alloca i32, align 4
  store i32 0, i32* %1, align 4
  store i32 0, i32* %2, align 4
  %5 = call i32 (i8*, ...) @__isoc99_scanf(i8* getelementptr inbounds ([3 x i8], [3 x i8]* @.str, i64 0, i64 0), i32* %3)
  store i32 0, i32* %4, align 4
  br label %6

6:                                                ; preds = %26, %0
  %7 = load i32, i32* %2, align 4
  %8 = icmp ne i32 %7, 5
  br i1 %8, label %9, label %29

9:                                                ; preds = %6
  %10 = load i32, i32* %3, align 4
  %11 = icmp eq i32 %10, 1
  br i1 %11, label %12, label %14

12:                                               ; preds = %9
  store i32 5, i32* %2, align 4
  %13 = call i32 (i8*, ...) @printf(i8* getelementptr inbounds ([5 x i8], [5 x i8]* @.str.1, i64 0, i64 0))
  br label %25

14:                                               ; preds = %9
  %15 = load i32, i32* %3, align 4
  %16 = srem i32 %15, 2
  %17 = icmp eq i32 %16, 0
  br i1 %17, label %18, label %21

18:                                               ; preds = %14
  %19 = load i32, i32* %3, align 4
  %20 = call i32 @EVEN(i32 %19)
  store i32 %20, i32* %3, align 4
  br label %24

21:                                               ; preds = %14
  %22 = load i32, i32* %3, align 4
  %23 = call i32 @ODD(i32 %22)
  store i32 %23, i32* %3, align 4
  br label %24

24:                                               ; preds = %21, %18
  br label %25

25:                                               ; preds = %24, %12
  br label %26

26:                                               ; preds = %25
  %27 = load i32, i32* %4, align 4
  %28 = add nsw i32 %27, 1
  store i32 %28, i32* %4, align 4
  br label %6

29:                                               ; preds = %6
  %30 = load i32, i32* %1, align 4
  ret i32 %30
}

declare dso_local i32 @__isoc99_scanf(i8*, ...) #1

declare dso_local i32 @printf(i8*, ...) #1

; Function Attrs: noinline nounwind uwtable
define dso_local i32 @EVEN(i32 %0) #0 {
  %2 = alloca i32, align 4
  store i32 %0, i32* %2, align 4
  %3 = load i32, i32* %2, align 4
  %4 = load i32, i32* %2, align 4
  %5 = sdiv i32 %4, 2
  %6 = call i32 (i8*, ...) @printf(i8* getelementptr inbounds ([9 x i8], [9 x i8]* @.str.2, i64 0, i64 0), i32 %3, i32 %5)
  %7 = load i32, i32* %2, align 4
  %8 = sdiv i32 %7, 2
  store i32 %8, i32* %2, align 4
  %9 = load i32, i32* %2, align 4
  ret i32 %9
}

; Function Attrs: noinline nounwind uwtable
define dso_local i32 @ODD(i32 %0) #0 {
  %2 = alloca i32, align 4
  store i32 %0, i32* %2, align 4
  %3 = load i32, i32* %2, align 4
  %4 = load i32, i32* %2, align 4
  %5 = mul nsw i32 %4, 3
  %6 = add nsw i32 %5, 1
  %7 = call i32 (i8*, ...) @printf(i8* getelementptr inbounds ([11 x i8], [11 x i8]* @.str.3, i64 0, i64 0), i32 %3, i32 %6)
  %8 = load i32, i32* %2, align 4
  %9 = mul nsw i32 %8, 3
  %10 = add nsw i32 %9, 1
  store i32 %10, i32* %2, align 4
  %11 = load i32, i32* %2, align 4
  ret i32 %11
}


!llvm.module.flags = !{!0}
!llvm.ident = !{!1}

!0 = !{i32 1, !"wchar_size", i32 4}
!1 = !{!"clang version 10.0.0-4ubuntu1 "}
